Certificate:
    Data:
        Version: 3 (0x2)
        Serial Number: 1 (0x1)
        Signature Algorithm: md5WithRSAEncryption
        Issuer: O=Kolab, OU=Test-CA, CN=com.ciws.com
        Validity
            Not Before: Nov 17 15:29:55 2008 GMT
            Not After : Nov 15 15:29:55 2018 GMT
        Subject: CN=com.ciws.com
        Subject Public Key Info:
            Public Key Algorithm: rsaEncryption
            RSA Public Key: (1024 bit)
                Modulus (1024 bit):
                    00:d5:cc:0a:c6:cb:9b:0f:02:47:54:c1:fe:be:b9:
                    15:96:48:7a:db:89:6e:b1:22:a8:dd:c8:b5:b6:1a:
                    ae:35:25:28:2d:47:d4:d5:4b:a9:f2:c2:a3:46:db:
                    db:07:bb:4a:d6:73:05:d2:b9:fd:0e:d8:f0:69:c7:
                    08:48:9e:29:97:bf:5e:35:e1:c1:b9:b0:10:3d:e9:
                    58:ab:36:5c:78:8b:fa:98:f0:59:c7:78:64:d8:17:
                    3c:f8:98:c8:4e:3b:56:2c:a3:ec:36:35:1d:08:10:
                    d6:10:45:9d:05:57:ba:ec:12:81:f4:a7:88:94:4a:
                    7a:8f:c1:10:4e:93:8f:02:35
                Exponent: 65537 (0x10001)
        X509v3 extensions:
            X509v3 Basic Constraints: 
                CA:FALSE
            Netscape Comment: 
                OpenSSL Generated Certificate
            X509v3 Subject Key Identifier: 
                CB:4E:2A:71:E1:D5:0F:B2:2C:21:7E:37:75:23:0F:97:75:51:AA:16
            X509v3 Authority Key Identifier: 
                DirName:/O=Kolab/OU=Test-CA/CN=com.ciws.com
                serial:99:0D:F5:6D:E8:D1:20:96

    Signature Algorithm: md5WithRSAEncryption
        5c:f7:7b:03:8d:fd:33:2b:e4:db:cf:62:31:59:8c:92:bc:8e:
        9e:f1:dd:df:79:4c:de:ca:2e:62:cf:c5:81:09:76:5a:a4:77:
        05:de:ad:2c:18:85:1b:48:97:26:01:25:15:40:5d:ce:d7:b6:
        4f:2c:92:e8:e0:f3:9a:d8:7f:f1:b6:28:06:ea:1f:be:09:c1:
        b8:4a:a0:fb:93:a3:ee:d6:d3:c3:28:aa:79:dc:59:87:d8:3c:
        a0:3b:8d:c1:50:df:be:02:dd:98:e1:dc:c6:0c:48:cc:a8:72:
        93:d5:a9:bc:01:ea:6d:86:e9:b6:18:43:0c:c1:4c:ce:97:a8:
        56:4a
-----BEGIN CERTIFICATE-----
MIICdzCCAeCgAwIBAgIBATANBgkqhkiG9w0BAQQFADA5MQ4wDAYDVQQKEwVLb2xh
YjEQMA4GA1UECxMHVGVzdC1DQTEVMBMGA1UEAxMMY29tLmNpd3MuY29tMB4XDTA4
MTExNzE1Mjk1NVoXDTE4MTExNTE1Mjk1NVowFzEVMBMGA1UEAxMMY29tLmNpd3Mu
Y29tMIGfMA0GCSqGSIb3DQEBAQUAA4GNADCBiQKBgQDVzArGy5sPAkdUwf6+uRWW
SHrbiW6xIqjdyLW2Gq41JSgtR9TVS6nywqNG29sHu0rWcwXSuf0O2PBpxwhInimX
v1414cG5sBA96VirNlx4i/qY8FnHeGTYFzz4mMhOO1Yso+w2NR0IENYQRZ0FV7rs
EoH0p4iUSnqPwRBOk48CNQIDAQABo4GwMIGtMAkGA1UdEwQCMAAwLAYJYIZIAYb4
QgENBB8WHU9wZW5TU0wgR2VuZXJhdGVkIENlcnRpZmljYXRlMB0GA1UdDgQWBBTL
Tipx4dUPsiwhfjd1Iw+XdVGqFjBTBgNVHSMETDBKoT2kOzA5MQ4wDAYDVQQKEwVL
b2xhYjEQMA4GA1UECxMHVGVzdC1DQTEVMBMGA1UEAxMMY29tLmNpd3MuY29tggkA
mQ31bejRIJYwDQYJKoZIhvcNAQEEBQADgYEAXPd7A439Myvk289iMVmMkryOnvHd
33lM3souYs/FgQl2WqR3Bd6tLBiFG0iXJgElFUBdzte2TyyS6ODzmth/8bYoBuof
vgnBuEqg+5Oj7tbTwyiqedxZh9g8oDuNwVDfvgLdmOHcxgxIzKhyk9WpvAHqbYbp
thhDDMFMzpeoVko=
-----END CERTIFICATE-----
